target datalayout = "e-m:e-p270:32:32-p271:32:32-p272:64:64-i64:64-i128:128-f80:128-n8:16:32:64-S128"
target triple = "x86_64-pc-linux-gnu"

%struct.atm_phdr = type { i32, i8, i8, i8, i16, i16, i8, i16, i16, i16, i16, i32 }

; Function Attrs: null_pointer_is_valid sspstrong uwtable
define internal void @erf_atm_guess_lane_type(ptr noundef %0, i32 noundef %1, i32 noundef %2, ptr noundef %3) #2 {
  %5 = alloca ptr, align 8
  %6 = alloca i32, align 4
  %7 = alloca i32, align 4
  %8 = alloca ptr, align 8
  store ptr %0, ptr %5, align 8
  store i32 %1, ptr %6, align 4
  store i32 %2, ptr %7, align 4
  store ptr %3, ptr %8, align 8
  %9 = load i32, ptr %7, align 4
  %10 = icmp uge i32 %9, 2
  br i1 %10, label %11, label %24

11:                                               ; preds = %4
  %12 = load ptr, ptr %5, align 8
  %13 = load i32, ptr %6, align 4
  %14 = call zeroext i16 @tvb_get_ntohs(ptr noundef %12, i32 noundef %13)
  %15 = zext i16 %14 to i32
  %16 = icmp eq i32 %15, 65280
  br i1 %16, label %17, label %20

17:                                               ; preds = %11
  %18 = load ptr, ptr %8, align 8
  %19 = getelementptr inbounds nuw %struct.atm_phdr, ptr %18, i32 0, i32 3
  store i8 1, ptr %19, align 2
  br label %23

20:                                               ; preds = %11
  %21 = load ptr, ptr %8, align 8
  %22 = getelementptr inbounds nuw %struct.atm_phdr, ptr %21, i32 0, i32 3
  store i8 2, ptr %22, align 2
  br label %23

23:                                               ; preds = %20, %17
  br label %24

24:                                               ; preds = %23, %4
  ret void
}

; Function Attrs: null_pointer_is_valid sspstrong uwtable
define internal void @erf_atm_guess_traffic_type(ptr noundef %0, i32 noundef %1, i32 noundef %2, ptr noundef %3) #2 {
  %5 = alloca ptr, align 8
  %6 = alloca i32, align 4
  %7 = alloca i32, align 4
  %8 = alloca ptr, align 8
  %9 = alloca i8, align 1
  store ptr %0, ptr %5, align 8
  store i32 %1, ptr %6, align 4
  store i32 %2, ptr %7, align 4
  store ptr %3, ptr %8, align 8
  %10 = load ptr, ptr %8, align 8
  %11 = getelementptr inbounds nuw %struct.atm_phdr, ptr %10, i32 0, i32 1
  store i8 4, ptr %11, align 4
  %12 = load ptr, ptr %8, align 8
  %13 = getelementptr inbounds nuw %struct.atm_phdr, ptr %12, i32 0, i32 2
  store i8 0, ptr %13, align 1
  %14 = load ptr, ptr %8, align 8
  %15 = getelementptr inbounds nuw %struct.atm_phdr, ptr %14, i32 0, i32 3
  store i8 0, ptr %15, align 2
  %16 = load ptr, ptr %8, align 8
  %17 = getelementptr inbounds nuw %struct.atm_phdr, ptr %16, i32 0, i32 4
  %18 = load i16, ptr %17, align 4
  %19 = zext i16 %18 to i32
  %20 = icmp eq i32 %19, 0
  br i1 %20, label %21, label %33

21:                                               ; preds = %4
  %22 = load ptr, ptr %8, align 8
  %23 = getelementptr inbounds nuw %struct.atm_phdr, ptr %22, i32 0, i32 5
  %24 = load i16, ptr %23, align 2
  %25 = zext i16 %24 to i32
  switch i32 %25, label %32 [
    i32 5, label %26
    i32 16, label %29
  ]

26:                                               ; preds = %21
  %27 = load ptr, ptr %8, align 8
  %28 = getelementptr inbounds nuw %struct.atm_phdr, ptr %27, i32 0, i32 1
  store i8 6, ptr %28, align 4
  br label %88

29:                                               ; preds = %21
  %30 = load ptr, ptr %8, align 8
  %31 = getelementptr inbounds nuw %struct.atm_phdr, ptr %30, i32 0, i32 2
  store i8 4, ptr %31, align 1
  br label %88

32:                                               ; preds = %21
  br label %33

33:                                               ; preds = %32, %4
  %34 = load i32, ptr %7, align 4
  %35 = icmp uge i32 %34, 3
  br i1 %35, label %36, label %85

36:                                               ; preds = %33
  call void @llvm.lifetime.start.p0(i64 1, ptr %9) #14
  %37 = load ptr, ptr %5, align 8
  %38 = load i32, ptr %6, align 4
  %39 = call i32 @tvb_get_ntoh24(ptr noundef %37, i32 noundef %38)
  %40 = icmp eq i32 %39, 11184643
  br i1 %40, label %41, label %44

41:                                               ; preds = %36
  %42 = load ptr, ptr %8, align 8
  %43 = getelementptr inbounds nuw %struct.atm_phdr, ptr %42, i32 0, i32 2
  store i8 1, ptr %43, align 1
  br label %84

44:                                               ; preds = %36
  %45 = load ptr, ptr %8, align 8
  %46 = getelementptr inbounds nuw %struct.atm_phdr, ptr %45, i32 0, i32 10
  %47 = load i16, ptr %46, align 4
  %48 = zext i16 %47 to i32
  %49 = icmp ne i32 %48, 0
  br i1 %49, label %50, label %56

50:                                               ; preds = %44
  %51 = load ptr, ptr %8, align 8
  %52 = getelementptr inbounds nuw %struct.atm_phdr, ptr %51, i32 0, i32 10
  %53 = load i16, ptr %52, align 4
  %54 = zext i16 %53 to i32
  %55 = icmp slt i32 %54, 16
  br i1 %55, label %59, label %56

56:                                               ; preds = %50, %44
  %57 = load i32, ptr %7, align 4
  %58 = icmp ult i32 %57, 16
  br i1 %58, label %59, label %62

59:                                               ; preds = %56, %50
  %60 = load ptr, ptr %8, align 8
  %61 = getelementptr inbounds nuw %struct.atm_phdr, ptr %60, i32 0, i32 1
  store i8 6, ptr %61, align 4
  br label %83

62:                                               ; preds = %56
  %63 = load ptr, ptr %5, align 8
  %64 = load i32, ptr %6, align 4
  %65 = call zeroext i8 @tvb_get_uint8(ptr noundef %63, i32 noundef %64)
  store i8 %65, ptr %9, align 1
  %66 = zext i8 %65 to i32
  %67 = icmp eq i32 %66, 131
  br i1 %67, label %72, label %68

68:                                               ; preds = %62
  %69 = load i8, ptr %9, align 1
  %70 = zext i8 %69 to i32
  %71 = icmp eq i32 %70, 129
  br i1 %71, label %72, label %75

72:                                               ; preds = %68, %62
  %73 = load ptr, ptr %8, align 8
  %74 = getelementptr inbounds nuw %struct.atm_phdr, ptr %73, i32 0, i32 1
  store i8 6, ptr %74, align 4
  br label %82

75:                                               ; preds = %68
  %76 = load ptr, ptr %8, align 8
  %77 = getelementptr inbounds nuw %struct.atm_phdr, ptr %76, i32 0, i32 2
  store i8 3, ptr %77, align 1
  %78 = load ptr, ptr %5, align 8
  %79 = load i32, ptr %6, align 4
  %80 = load i32, ptr %7, align 4
  %81 = load ptr, ptr %8, align 8
  call void @erf_atm_guess_lane_type(ptr noundef %78, i32 noundef %79, i32 noundef %80, ptr noundef %81)
  br label %82

82:                                               ; preds = %75, %72
  br label %83

83:                                               ; preds = %82, %59
  br label %84

84:                                               ; preds = %83, %41
  call void @llvm.lifetime.end.p0(i64 1, ptr %9) #14
  br label %88

85:                                               ; preds = %33
  %86 = load ptr, ptr %8, align 8
  %87 = getelementptr inbounds nuw %struct.atm_phdr, ptr %86, i32 0, i32 1
  store i8 6, ptr %87, align 4
  br label %88

88:                                               ; preds = %26, %29, %85, %84
  ret void
}