; Function Attrs: null_pointer_is_valid sspstrong uwtable
define internal fastcc void @erf_atm_guess_traffic_type(ptr noundef %0, i32 noundef %1, ptr noundef captures(none) initializes((4, 7)) %2) unnamed_addr #2 {
  %4 = getelementptr inbounds nuw i8, ptr %2, i64 4
  store i8 4, ptr %4, align 4
  %5 = getelementptr inbounds nuw i8, ptr %2, i64 5
  store i8 0, ptr %5, align 1
  %6 = getelementptr inbounds nuw i8, ptr %2, i64 6
  store i8 0, ptr %6, align 2
  %7 = getelementptr inbounds nuw i8, ptr %2, i64 8
  %8 = load i16, ptr %7, align 4
  %9 = icmp eq i16 %8, 0
  br i1 %9, label %10, label %15

10:                                               ; preds = %3
  %11 = getelementptr inbounds nuw i8, ptr %2, i64 10
  %12 = load i16, ptr %11, align 2
  switch i16 %12, label %15 [
    i16 5, label %13
    i16 16, label %14
  ]

13:                                               ; preds = %10
  store i8 6, ptr %4, align 4
  br label %37

14:                                               ; preds = %10
  store i8 4, ptr %5, align 1
  br label %37

15:                                               ; preds = %10, %3
  %16 = icmp ugt i32 %1, 2
  br i1 %16, label %17, label %36

17:                                               ; preds = %15
  %18 = tail call i32 @tvb_get_ntoh24(ptr noundef %0, i32 noundef 0)
  %19 = icmp eq i32 %18, 11184643
  br i1 %19, label %20, label %21

20:                                               ; preds = %17
  store i8 1, ptr %5, align 1
  br label %37

21:                                               ; preds = %17
  %22 = getelementptr inbounds nuw i8, ptr %2, i64 20
  %23 = load i16, ptr %22, align 4
  %.not = icmp eq i16 %23, 0
  br i1 %.not, label %27, label %24

24:                                               ; preds = %21
  %25 = icmp ult i16 %23, 16
  %26 = icmp ult i32 %1, 16
  %or.cond = or i1 %26, %25
  br i1 %or.cond, label %28, label %29

27:                                               ; preds = %21
  %.old1 = icmp ult i32 %1, 16
  br i1 %.old1, label %28, label %29

28:                                               ; preds = %27, %24
  store i8 6, ptr %4, align 4
  br label %37

29:                                               ; preds = %24, %27
  %30 = tail call zeroext i8 @tvb_get_uint8(ptr noundef %0, i32 noundef 0)
  %31 = and i8 %30, -3
  %or.cond5 = icmp eq i8 %31, -127
  br i1 %or.cond5, label %32, label %33

32:                                               ; preds = %29
  store i8 6, ptr %4, align 4
  br label %37

33:                                               ; preds = %29
  store i8 3, ptr %5, align 1
  %34 = tail call zeroext i16 @tvb_get_ntohs(ptr noundef %0, i32 noundef 0)
  %35 = icmp eq i16 %34, -256
  %spec.select.i = select i1 %35, i8 1, i8 2
  store i8 %spec.select.i, ptr %6, align 2
  br label %37

36:                                               ; preds = %15
  store i8 6, ptr %4, align 4
  br label %37

37:                                               ; preds = %20, %32, %33, %28, %36, %14, %13
  ret void
}